target datalayout = "e-m:e-p270:32:32-p271:32:32-p272:64:64-i64:64-i128:128-f80:128-n8:16:32:64-S128"
target triple = "x86_64-pc-linux-gnu"

%struct.AVFilterContext = type { ptr, ptr, ptr, ptr, ptr, i32, ptr, ptr, i32, ptr, ptr, i32, i32, ptr, ptr, ptr, ptr, i32, ptr, i32, i32 }

; Function Attrs: nounwind uwtable
define internal i32 @process_command(ptr noundef %0, ptr noundef %1, ptr noundef %2, ptr noundef %3, i32 noundef %4, i32 noundef %5) #1 {
  %7 = alloca i32, align 4
  %8 = alloca ptr, align 8
  %9 = alloca ptr, align 8
  %10 = alloca ptr, align 8
  %11 = alloca ptr, align 8
  %12 = alloca i32, align 4
  %13 = alloca i32, align 4
  %14 = alloca ptr, align 8
  %15 = alloca i32, align 4
  %16 = alloca i32, align 4
  store ptr %0, ptr %8, align 8, !tbaa !4
  store ptr %1, ptr %9, align 8, !tbaa !24
  store ptr %2, ptr %10, align 8, !tbaa !24
  store ptr %3, ptr %11, align 8, !tbaa !24
  store i32 %4, ptr %12, align 4, !tbaa !25
  store i32 %5, ptr %13, align 4, !tbaa !25
  call void @llvm.lifetime.start.p0(i64 8, ptr %14) #6
  %17 = load ptr, ptr %8, align 8, !tbaa !4
  %18 = getelementptr inbounds nuw %struct.AVFilterContext, ptr %17, i32 0, i32 4
  %19 = load ptr, ptr %18, align 8, !tbaa !26
  %20 = getelementptr inbounds ptr, ptr %19, i64 0
  %21 = load ptr, ptr %20, align 8, !tbaa !27
  store ptr %21, ptr %14, align 8, !tbaa !27
  call void @llvm.lifetime.start.p0(i64 4, ptr %15) #6
  %22 = load ptr, ptr %8, align 8, !tbaa !4
  %23 = load ptr, ptr %9, align 8, !tbaa !24
  %24 = load ptr, ptr %10, align 8, !tbaa !24
  %25 = load ptr, ptr %11, align 8, !tbaa !24
  %26 = load i32, ptr %12, align 4, !tbaa !25
  %27 = load i32, ptr %13, align 4, !tbaa !25
  %28 = call i32 @ff_filter_process_command(ptr noundef %22, ptr noundef %23, ptr noundef %24, ptr noundef %25, i32 noundef %26, i32 noundef %27)
  store i32 %28, ptr %15, align 4, !tbaa !25
  %29 = load i32, ptr %15, align 4, !tbaa !25
  %30 = icmp slt i32 %29, 0
  br i1 %30, label %31, label %33

31:                                               ; preds = %6
  %32 = load i32, ptr %15, align 4, !tbaa !25
  store i32 %32, ptr %7, align 4
  store i32 1, ptr %16, align 4
  br label %36

33:                                               ; preds = %6
  %34 = load ptr, ptr %14, align 8, !tbaa !27
  %35 = call i32 @config_input(ptr noundef %34)
  store i32 %35, ptr %7, align 4
  store i32 1, ptr %16, align 4
  br label %36

36:                                               ; preds = %33, %31
  call void @llvm.lifetime.end.p0(i64 4, ptr %15) #6
  call void @llvm.lifetime.end.p0(i64 8, ptr %14) #6
  %37 = load i32, ptr %7, align 4
  ret i32 %37
}